target datalayout = "e-m:e-p270:32:32-p271:32:32-p272:64:64-i64:64-i128:128-f80:128-n8:16:32:64-S128"
target triple = "x86_64-pc-linux-gnu"

@pg_strtok_ptr = internal global ptr null, align 8

; Function Attrs: nounwind uwtable
define dso_local ptr @pg_strtok(ptr noundef %0) #0 {
  %2 = alloca ptr, align 8
  %3 = alloca ptr, align 8
  %4 = alloca ptr, align 8
  %5 = alloca ptr, align 8
  %6 = alloca i32, align 4
  store ptr %0, ptr %3, align 8
  call void @llvm.lifetime.start.p0(i64 8, ptr %4) #9
  call void @llvm.lifetime.start.p0(i64 8, ptr %5) #9
  %7 = load ptr, ptr @pg_strtok_ptr, align 8
  store ptr %7, ptr %4, align 8
  br label %8

8:                                                ; preds = %25, %1
  %9 = load ptr, ptr %4, align 8
  %10 = load i8, ptr %9, align 1
  %11 = sext i8 %10 to i32
  %12 = icmp eq i32 %11, 32
  br i1 %12, label %23, label %13

13:                                               ; preds = %8
  %14 = load ptr, ptr %4, align 8
  %15 = load i8, ptr %14, align 1
  %16 = sext i8 %15 to i32
  %17 = icmp eq i32 %16, 10
  br i1 %17, label %23, label %18

18:                                               ; preds = %13
  %19 = load ptr, ptr %4, align 8
  %20 = load i8, ptr %19, align 1
  %21 = sext i8 %20 to i32
  %22 = icmp eq i32 %21, 9
  br label %23

23:                                               ; preds = %18, %13, %8
  %24 = phi i1 [ true, %13 ], [ true, %8 ], [ %22, %18 ]
  br i1 %24, label %25, label %28

25:                                               ; preds = %23
  %26 = load ptr, ptr %4, align 8
  %27 = getelementptr inbounds nuw i8, ptr %26, i32 1
  store ptr %27, ptr %4, align 8
  br label %8, !llvm.loop !4

28:                                               ; preds = %23
  %29 = load ptr, ptr %4, align 8
  %30 = load i8, ptr %29, align 1
  %31 = sext i8 %30 to i32
  %32 = icmp eq i32 %31, 0
  br i1 %32, label %33, label %36

33:                                               ; preds = %28
  %34 = load ptr, ptr %3, align 8
  store i32 0, ptr %34, align 4
  %35 = load ptr, ptr %4, align 8
  store ptr %35, ptr @pg_strtok_ptr, align 8
  store ptr null, ptr %2, align 8
  store i32 1, ptr %6, align 4
  br label %150

36:                                               ; preds = %28
  %37 = load ptr, ptr %4, align 8
  store ptr %37, ptr %5, align 8
  %38 = load ptr, ptr %4, align 8
  %39 = load i8, ptr %38, align 1
  %40 = sext i8 %39 to i32
  %41 = icmp eq i32 %40, 40
  br i1 %41, label %57, label %42

42:                                               ; preds = %36
  %43 = load ptr, ptr %4, align 8
  %44 = load i8, ptr %43, align 1
  %45 = sext i8 %44 to i32
  %46 = icmp eq i32 %45, 41
  br i1 %46, label %57, label %47

47:                                               ; preds = %42
  %48 = load ptr, ptr %4, align 8
  %49 = load i8, ptr %48, align 1
  %50 = sext i8 %49 to i32
  %51 = icmp eq i32 %50, 123
  br i1 %51, label %57, label %52

52:                                               ; preds = %47
  %53 = load ptr, ptr %4, align 8
  %54 = load i8, ptr %53, align 1
  %55 = sext i8 %54 to i32
  %56 = icmp eq i32 %55, 125
  br i1 %56, label %57, label %60

57:                                               ; preds = %52, %47, %42, %36
  %58 = load ptr, ptr %4, align 8
  %59 = getelementptr inbounds nuw i8, ptr %58, i32 1
  store ptr %59, ptr %4, align 8
  br label %122

60:                                               ; preds = %52
  br label %61

61:                                               ; preds = %120, %60
  %62 = load ptr, ptr %4, align 8
  %63 = load i8, ptr %62, align 1
  %64 = sext i8 %63 to i32
  %65 = icmp ne i32 %64, 0
  br i1 %65, label %66, label %101

66:                                               ; preds = %61
  %67 = load ptr, ptr %4, align 8
  %68 = load i8, ptr %67, align 1
  %69 = sext i8 %68 to i32
  %70 = icmp ne i32 %69, 32
  br i1 %70, label %71, label %101

71:                                               ; preds = %66
  %72 = load ptr, ptr %4, align 8
  %73 = load i8, ptr %72, align 1
  %74 = sext i8 %73 to i32
  %75 = icmp ne i32 %74, 10
  br i1 %75, label %76, label %101

76:                                               ; preds = %71
  %77 = load ptr, ptr %4, align 8
  %78 = load i8, ptr %77, align 1
  %79 = sext i8 %78 to i32
  %80 = icmp ne i32 %79, 9
  br i1 %80, label %81, label %101

81:                                               ; preds = %76
  %82 = load ptr, ptr %4, align 8
  %83 = load i8, ptr %82, align 1
  %84 = sext i8 %83 to i32
  %85 = icmp ne i32 %84, 40
  br i1 %85, label %86, label %101

86:                                               ; preds = %81
  %87 = load ptr, ptr %4, align 8
  %88 = load i8, ptr %87, align 1
  %89 = sext i8 %88 to i32
  %90 = icmp ne i32 %89, 41
  br i1 %90, label %91, label %101

91:                                               ; preds = %86
  %92 = load ptr, ptr %4, align 8
  %93 = load i8, ptr %92, align 1
  %94 = sext i8 %93 to i32
  %95 = icmp ne i32 %94, 123
  br i1 %95, label %96, label %101

96:                                               ; preds = %91
  %97 = load ptr, ptr %4, align 8
  %98 = load i8, ptr %97, align 1
  %99 = sext i8 %98 to i32
  %100 = icmp ne i32 %99, 125
  br label %101

101:                                              ; preds = %96, %91, %86, %81, %76, %71, %66, %61
  %102 = phi i1 [ false, %91 ], [ false, %86 ], [ false, %81 ], [ false, %76 ], [ false, %71 ], [ false, %66 ], [ false, %61 ], [ %100, %96 ]
  br i1 %102, label %103, label %121

103:                                              ; preds = %101
  %104 = load ptr, ptr %4, align 8
  %105 = load i8, ptr %104, align 1
  %106 = sext i8 %105 to i32
  %107 = icmp eq i32 %106, 92
  br i1 %107, label %108, label %117

108:                                              ; preds = %103
  %109 = load ptr, ptr %4, align 8
  %110 = getelementptr inbounds i8, ptr %109, i64 1
  %111 = load i8, ptr %110, align 1
  %112 = sext i8 %111 to i32
  %113 = icmp ne i32 %112, 0
  br i1 %113, label %114, label %117

114:                                              ; preds = %108
  %115 = load ptr, ptr %4, align 8
  %116 = getelementptr inbounds i8, ptr %115, i64 2
  store ptr %116, ptr %4, align 8
  br label %120

117:                                              ; preds = %108, %103
  %118 = load ptr, ptr %4, align 8
  %119 = getelementptr inbounds nuw i8, ptr %118, i32 1
  store ptr %119, ptr %4, align 8
  br label %120

120:                                              ; preds = %117, %114
  br label %61, !llvm.loop !6

121:                                              ; preds = %101
  br label %122

122:                                              ; preds = %121, %57
  %123 = load ptr, ptr %4, align 8
  %124 = load ptr, ptr %5, align 8
  %125 = ptrtoint ptr %123 to i64
  %126 = ptrtoint ptr %124 to i64
  %127 = sub i64 %125, %126
  %128 = trunc i64 %127 to i32
  %129 = load ptr, ptr %3, align 8
  store i32 %128, ptr %129, align 4
  %130 = load ptr, ptr %3, align 8
  %131 = load i32, ptr %130, align 4
  %132 = icmp eq i32 %131, 2
  br i1 %132, label %133, label %147

133:                                              ; preds = %122
  %134 = load ptr, ptr %5, align 8
  %135 = getelementptr inbounds i8, ptr %134, i64 0
  %136 = load i8, ptr %135, align 1
  %137 = sext i8 %136 to i32
  %138 = icmp eq i32 %137, 60
  br i1 %138, label %139, label %147

139:                                              ; preds = %133
  %140 = load ptr, ptr %5, align 8
  %141 = getelementptr inbounds i8, ptr %140, i64 1
  %142 = load i8, ptr %141, align 1
  %143 = sext i8 %142 to i32
  %144 = icmp eq i32 %143, 62
  br i1 %144, label %145, label %147

145:                                              ; preds = %139
  %146 = load ptr, ptr %3, align 8
  store i32 0, ptr %146, align 4
  br label %147

147:                                              ; preds = %145, %139, %133, %122
  %148 = load ptr, ptr %4, align 8
  store ptr %148, ptr @pg_strtok_ptr, align 8
  %149 = load ptr, ptr %5, align 8
  store ptr %149, ptr %2, align 8
  store i32 1, ptr %6, align 4
  br label %150

150:                                              ; preds = %147, %33
  call void @llvm.lifetime.end.p0(i64 8, ptr %5) #9
  call void @llvm.lifetime.end.p0(i64 8, ptr %4) #9
  %151 = load ptr, ptr %2, align 8
  ret ptr %151
}