; Function Attrs: nofree norecurse nosync nounwind memory(readwrite, inaccessiblemem: none) uwtable
define dso_local noundef ptr @pg_strtok(ptr noundef writeonly captures(none) %0) local_unnamed_addr #1 {
  %2 = load ptr, ptr @pg_strtok_ptr, align 8
  br label %3

3:                                                ; preds = %.critedge, %1
  %.037 = phi ptr [ %2, %1 ], [ %5, %.critedge ]
  %4 = load i8, ptr %.037, align 1
  switch i8 %4, label %.preheader [
    i8 32, label %.critedge
    i8 10, label %.critedge
    i8 9, label %.critedge
    i8 0, label %.sink.split
    i8 40, label %6
    i8 41, label %6
    i8 123, label %6
    i8 125, label %6
  ]

.critedge:                                        ; preds = %3, %3, %3
  %5 = getelementptr inbounds nuw i8, ptr %.037, i64 1
  br label %3, !llvm.loop !4

6:                                                ; preds = %3, %3, %3, %3
  %7 = getelementptr inbounds nuw i8, ptr %.037, i64 1
  br label %.critedge2

.preheader:                                       ; preds = %3, %13
  %8 = phi i8 [ %.pr, %13 ], [ %4, %3 ]
  %.2 = phi ptr [ %14, %13 ], [ %.037, %3 ]
  switch i8 %8, label %12 [
    i8 0, label %.critedge2
    i8 32, label %.critedge2
    i8 10, label %.critedge2
    i8 9, label %.critedge2
    i8 40, label %.critedge2
    i8 41, label %.critedge2
    i8 123, label %.critedge2
    i8 125, label %.critedge2
    i8 92, label %9
  ]

9:                                                ; preds = %.preheader
  %10 = getelementptr inbounds nuw i8, ptr %.2, i64 1
  %11 = load i8, ptr %10, align 1
  %.not47 = icmp eq i8 %11, 0
  br i1 %.not47, label %12, label %13

12:                                               ; preds = %.preheader, %9
  br label %13

13:                                               ; preds = %9, %12
  %.sink = phi i64 [ 1, %12 ], [ 2, %9 ]
  %14 = getelementptr inbounds nuw i8, ptr %.2, i64 %.sink
  %.pr = load i8, ptr %14, align 1
  br label %.preheader, !llvm.loop !6

.critedge2:                                       ; preds = %.preheader, %.preheader, %.preheader, %.preheader, %.preheader, %.preheader, %.preheader, %.preheader, %6
  %.1 = phi ptr [ %7, %6 ], [ %.2, %.preheader ], [ %.2, %.preheader ], [ %.2, %.preheader ], [ %.2, %.preheader ], [ %.2, %.preheader ], [ %.2, %.preheader ], [ %.2, %.preheader ], [ %.2, %.preheader ]
  %15 = ptrtoint ptr %.1 to i64
  %16 = ptrtoint ptr %.037 to i64
  %17 = sub i64 %15, %16
  %18 = trunc i64 %17 to i32
  store i32 %18, ptr %0, align 4
  %19 = icmp eq i32 %18, 2
  br i1 %19, label %20, label %27

20:                                               ; preds = %.critedge2
  %21 = load i8, ptr %.037, align 1
  %22 = icmp eq i8 %21, 60
  br i1 %22, label %23, label %27

23:                                               ; preds = %20
  %24 = getelementptr inbounds nuw i8, ptr %.037, i64 1
  %25 = load i8, ptr %24, align 1
  %26 = icmp eq i8 %25, 62
  br i1 %26, label %.sink.split, label %27

.sink.split:                                      ; preds = %3, %23
  %storemerge.ph = phi ptr [ %.1, %23 ], [ %.037, %3 ]
  %.0.ph = phi ptr [ %.037, %23 ], [ null, %3 ]
  store i32 0, ptr %0, align 4
  br label %27

27:                                               ; preds = %.sink.split, %.critedge2, %20, %23
  %storemerge = phi ptr [ %.1, %23 ], [ %.1, %20 ], [ %.1, %.critedge2 ], [ %storemerge.ph, %.sink.split ]
  %.0 = phi ptr [ %.037, %23 ], [ %.037, %20 ], [ %.037, %.critedge2 ], [ %.0.ph, %.sink.split ]
  store ptr %storemerge, ptr @pg_strtok_ptr, align 8
  ret ptr %.0
}